target datalayout = "e-m:e-p270:32:32-p271:32:32-p272:64:64-i64:64-i128:128-f80:128-n8:16:32:64-S128"
target triple = "x86_64-pc-linux-gnu"

%struct._Node = type { %union.anon.2 }
%union.anon.2 = type { %struct.BagNode }
%struct.BagNode = type { i32, i32, ptr, ptr, i32, %union.anon.4, i32, i32, i32, i32, i32 }
%union.anon.4 = type { %struct.anon.7 }
%struct.anon.7 = type { ptr, ptr }
%struct.anon.3 = type { i32, i32, ptr, ptr }
%struct.BackRefNode = type { i32, i32, ptr, i32, [6 x i32], ptr, i32 }
%struct.ParseEnv = type { i32, i32, ptr, ptr, i32, i32, i32, ptr, ptr, ptr, ptr, ptr, i32, i32, i32, i32, [8 x %struct.MemEnv], ptr, i32, i32, i32, i32, ptr, ptr, i32, i32 }
%struct.MemEnv = type { ptr, ptr }

; Function Attrs: nounwind uwtable
define dso_local void @onig_node_free(ptr noundef %0) #0 {
  %2 = alloca ptr, align 8
  store ptr %0, ptr %2, align 8, !tbaa !111
  %3 = load ptr, ptr %2, align 8, !tbaa !111
  %4 = icmp eq ptr %3, null
  br i1 %4, label %5, label %6

5:                                                ; preds = %1
  br label %9

6:                                                ; preds = %1
  %7 = load ptr, ptr %2, align 8, !tbaa !111
  call void @node_free_body(ptr noundef %7)
  %8 = load ptr, ptr %2, align 8, !tbaa !111
  call void @free(ptr noundef %8) #8
  br label %9

9:                                                ; preds = %6, %5
  ret void
}

; Function Attrs: nounwind uwtable
define internal ptr @node_new() #0 {
  %1 = alloca ptr, align 8
  %2 = alloca ptr, align 8
  %3 = alloca i32, align 4
  call void @llvm.lifetime.start.p0(i64 8, ptr %2) #8
  %4 = call noalias ptr @malloc(i64 noundef 72) #9
  store ptr %4, ptr %2, align 8, !tbaa !111
  %5 = load ptr, ptr %2, align 8, !tbaa !111
  %6 = icmp eq ptr %5, null
  br i1 %6, label %7, label %8

7:                                                ; preds = %0
  store ptr null, ptr %1, align 8
  store i32 1, ptr %3, align 4
  br label %11

8:                                                ; preds = %0
  %9 = load ptr, ptr %2, align 8, !tbaa !111
  call void @llvm.memset.p0.i64(ptr align 8 %9, i8 0, i64 72, i1 false)
  %10 = load ptr, ptr %2, align 8, !tbaa !111
  store ptr %10, ptr %1, align 8
  store i32 1, ptr %3, align 4
  br label %11

11:                                               ; preds = %8, %7
  call void @llvm.lifetime.end.p0(i64 8, ptr %2) #8
  %12 = load ptr, ptr %1, align 8
  ret ptr %12
}

; Function Attrs: nounwind uwtable
define internal ptr @node_new_backref(i32 noundef %0, ptr noundef %1, i32 noundef %2, i32 noundef %3, i32 noundef %4, ptr noundef %5) #0 {
  %7 = alloca ptr, align 8
  %8 = alloca i32, align 4
  %9 = alloca ptr, align 8
  %10 = alloca i32, align 4
  %11 = alloca i32, align 4
  %12 = alloca i32, align 4
  %13 = alloca ptr, align 8
  %14 = alloca i32, align 4
  %15 = alloca ptr, align 8
  %16 = alloca i32, align 4
  %17 = alloca ptr, align 8
  store i32 %0, ptr %8, align 4, !tbaa !10
  store ptr %1, ptr %9, align 8, !tbaa !62
  store i32 %2, ptr %10, align 4, !tbaa !10
  store i32 %3, ptr %11, align 4, !tbaa !10
  store i32 %4, ptr %12, align 4, !tbaa !10
  store ptr %5, ptr %13, align 8, !tbaa !9
  call void @llvm.lifetime.start.p0(i64 4, ptr %14) #8
  call void @llvm.lifetime.start.p0(i64 8, ptr %15) #8
  %18 = call ptr @node_new()
  store ptr %18, ptr %15, align 8, !tbaa !111
  %19 = load ptr, ptr %15, align 8, !tbaa !111
  %20 = icmp eq ptr %19, null
  br i1 %20, label %21, label %22

21:                                               ; preds = %6
  store ptr null, ptr %7, align 8
  store i32 1, ptr %16, align 4
  br label %181

22:                                               ; preds = %6
  %23 = load ptr, ptr %15, align 8, !tbaa !111
  %24 = getelementptr inbounds nuw %struct._Node, ptr %23, i32 0, i32 0
  %25 = getelementptr inbounds nuw %struct.anon.3, ptr %24, i32 0, i32 0
  store i32 3, ptr %25, align 8, !tbaa !12
  %26 = load i32, ptr %8, align 4, !tbaa !10
  %27 = load ptr, ptr %15, align 8, !tbaa !111
  %28 = getelementptr inbounds nuw %struct._Node, ptr %27, i32 0, i32 0
  %29 = getelementptr inbounds nuw %struct.BackRefNode, ptr %28, i32 0, i32 3
  store i32 %26, ptr %29, align 8, !tbaa !12
  %30 = load ptr, ptr %15, align 8, !tbaa !111
  %31 = getelementptr inbounds nuw %struct._Node, ptr %30, i32 0, i32 0
  %32 = getelementptr inbounds nuw %struct.BackRefNode, ptr %31, i32 0, i32 5
  store ptr null, ptr %32, align 8, !tbaa !12
  %33 = load i32, ptr %10, align 4, !tbaa !10
  %34 = icmp ne i32 %33, 0
  br i1 %34, label %35, label %41

35:                                               ; preds = %22
  %36 = load ptr, ptr %15, align 8, !tbaa !111
  %37 = getelementptr inbounds nuw %struct._Node, ptr %36, i32 0, i32 0
  %38 = getelementptr inbounds nuw %struct.anon.3, ptr %37, i32 0, i32 1
  %39 = load i32, ptr %38, align 4, !tbaa !12
  %40 = or i32 %39, 32768
  store i32 %40, ptr %38, align 4, !tbaa !12
  br label %41

41:                                               ; preds = %35, %22
  %42 = load ptr, ptr %13, align 8, !tbaa !9
  %43 = getelementptr inbounds nuw %struct.ParseEnv, ptr %42, i32 0, i32 0
  %44 = load i32, ptr %43, align 8, !tbaa !153
  %45 = and i32 %44, 1
  %46 = icmp ne i32 %45, 0
  br i1 %46, label %47, label %53

47:                                               ; preds = %41
  %48 = load ptr, ptr %15, align 8, !tbaa !111
  %49 = getelementptr inbounds nuw %struct._Node, ptr %48, i32 0, i32 0
  %50 = getelementptr inbounds nuw %struct.anon.3, ptr %49, i32 0, i32 1
  %51 = load i32, ptr %50, align 4, !tbaa !12
  %52 = or i32 %51, 2097152
  store i32 %52, ptr %50, align 4, !tbaa !12
  br label %53

53:                                               ; preds = %47, %41
  %54 = load i32, ptr %11, align 4, !tbaa !10
  %55 = icmp ne i32 %54, 0
  br i1 %55, label %56, label %66

56:                                               ; preds = %53
  %57 = load ptr, ptr %15, align 8, !tbaa !111
  %58 = getelementptr inbounds nuw %struct._Node, ptr %57, i32 0, i32 0
  %59 = getelementptr inbounds nuw %struct.anon.3, ptr %58, i32 0, i32 1
  %60 = load i32, ptr %59, align 4, !tbaa !12
  %61 = or i32 %60, 8192
  store i32 %61, ptr %59, align 4, !tbaa !12
  %62 = load i32, ptr %12, align 4, !tbaa !10
  %63 = load ptr, ptr %15, align 8, !tbaa !111
  %64 = getelementptr inbounds nuw %struct._Node, ptr %63, i32 0, i32 0
  %65 = getelementptr inbounds nuw %struct.BackRefNode, ptr %64, i32 0, i32 6
  store i32 %62, ptr %65, align 8, !tbaa !12
  br label %66

66:                                               ; preds = %56, %53
  store i32 0, ptr %14, align 4, !tbaa !10
  br label %67

67:                                               ; preds = %113, %66
  %68 = load i32, ptr %14, align 4, !tbaa !10
  %69 = load i32, ptr %8, align 4, !tbaa !10
  %70 = icmp slt i32 %68, %69
  br i1 %70, label %71, label %116

71:                                               ; preds = %67
  %72 = load ptr, ptr %9, align 8, !tbaa !62
  %73 = load i32, ptr %14, align 4, !tbaa !10
  %74 = sext i32 %73 to i64
  %75 = getelementptr inbounds i32, ptr %72, i64 %74
  %76 = load i32, ptr %75, align 4, !tbaa !10
  %77 = load ptr, ptr %13, align 8, !tbaa !9
  %78 = getelementptr inbounds nuw %struct.ParseEnv, ptr %77, i32 0, i32 13
  %79 = load i32, ptr %78, align 4, !tbaa !164
  %80 = icmp sle i32 %76, %79
  br i1 %80, label %81, label %112

81:                                               ; preds = %71
  %82 = load ptr, ptr %13, align 8, !tbaa !9
  %83 = getelementptr inbounds nuw %struct.ParseEnv, ptr %82, i32 0, i32 17
  %84 = load ptr, ptr %83, align 8, !tbaa !174
  %85 = icmp ne ptr %84, null
  br i1 %85, label %86, label %90

86:                                               ; preds = %81
  %87 = load ptr, ptr %13, align 8, !tbaa !9
  %88 = getelementptr inbounds nuw %struct.ParseEnv, ptr %87, i32 0, i32 17
  %89 = load ptr, ptr %88, align 8, !tbaa !174
  br label %94

90:                                               ; preds = %81
  %91 = load ptr, ptr %13, align 8, !tbaa !9
  %92 = getelementptr inbounds nuw %struct.ParseEnv, ptr %91, i32 0, i32 16
  %93 = getelementptr inbounds [8 x %struct.MemEnv], ptr %92, i64 0, i64 0
  br label %94

94:                                               ; preds = %90, %86
  %95 = phi ptr [ %89, %86 ], [ %93, %90 ]
  %96 = load ptr, ptr %9, align 8, !tbaa !62
  %97 = load i32, ptr %14, align 4, !tbaa !10
  %98 = sext i32 %97 to i64
  %99 = getelementptr inbounds i32, ptr %96, i64 %98
  %100 = load i32, ptr %99, align 4, !tbaa !10
  %101 = sext i32 %100 to i64
  %102 = getelementptr inbounds %struct.MemEnv, ptr %95, i64 %101
  %103 = getelementptr inbounds nuw %struct.MemEnv, ptr %102, i32 0, i32 0
  %104 = load ptr, ptr %103, align 8, !tbaa !199
  %105 = icmp eq ptr %104, null
  br i1 %105, label %106, label %112

106:                                              ; preds = %94
  %107 = load ptr, ptr %15, align 8, !tbaa !111
  %108 = getelementptr inbounds nuw %struct._Node, ptr %107, i32 0, i32 0
  %109 = getelementptr inbounds nuw %struct.anon.3, ptr %108, i32 0, i32 1
  %110 = load i32, ptr %109, align 4, !tbaa !12
  %111 = or i32 %110, 64
  store i32 %111, ptr %109, align 4, !tbaa !12
  br label %116

112:                                              ; preds = %94, %71
  br label %113

113:                                              ; preds = %112
  %114 = load i32, ptr %14, align 4, !tbaa !10
  %115 = add nsw i32 %114, 1
  store i32 %115, ptr %14, align 4, !tbaa !10
  br label %67, !llvm.loop !248

116:                                              ; preds = %106, %67
  %117 = load i32, ptr %8, align 4, !tbaa !10
  %118 = icmp sle i32 %117, 6
  br i1 %118, label %119, label %140

119:                                              ; preds = %116
  store i32 0, ptr %14, align 4, !tbaa !10
  br label %120

120:                                              ; preds = %136, %119
  %121 = load i32, ptr %14, align 4, !tbaa !10
  %122 = load i32, ptr %8, align 4, !tbaa !10
  %123 = icmp slt i32 %121, %122
  br i1 %123, label %124, label %139

124:                                              ; preds = %120
  %125 = load ptr, ptr %9, align 8, !tbaa !62
  %126 = load i32, ptr %14, align 4, !tbaa !10
  %127 = sext i32 %126 to i64
  %128 = getelementptr inbounds i32, ptr %125, i64 %127
  %129 = load i32, ptr %128, align 4, !tbaa !10
  %130 = load ptr, ptr %15, align 8, !tbaa !111
  %131 = getelementptr inbounds nuw %struct._Node, ptr %130, i32 0, i32 0
  %132 = getelementptr inbounds nuw %struct.BackRefNode, ptr %131, i32 0, i32 4
  %133 = load i32, ptr %14, align 4, !tbaa !10
  %134 = sext i32 %133 to i64
  %135 = getelementptr inbounds [6 x i32], ptr %132, i64 0, i64 %134
  store i32 %129, ptr %135, align 4, !tbaa !12
  br label %136

136:                                              ; preds = %124
  %137 = load i32, ptr %14, align 4, !tbaa !10
  %138 = add nsw i32 %137, 1
  store i32 %138, ptr %14, align 4, !tbaa !10
  br label %120, !llvm.loop !249

139:                                              ; preds = %120
  br label %175

140:                                              ; preds = %116
  call void @llvm.lifetime.start.p0(i64 8, ptr %17) #8
  %141 = load i32, ptr %8, align 4, !tbaa !10
  %142 = sext i32 %141 to i64
  %143 = mul i64 4, %142
  %144 = call noalias ptr @malloc(i64 noundef %143) #9
  store ptr %144, ptr %17, align 8, !tbaa !62
  %145 = load ptr, ptr %17, align 8, !tbaa !62
  %146 = icmp eq ptr %145, null
  br i1 %146, label %147, label %149

147:                                              ; preds = %140
  %148 = load ptr, ptr %15, align 8, !tbaa !111
  call void @onig_node_free(ptr noundef %148)
  store ptr null, ptr %7, align 8
  store i32 1, ptr %16, align 4
  br label %172

149:                                              ; preds = %140
  %150 = load ptr, ptr %17, align 8, !tbaa !62
  %151 = load ptr, ptr %15, align 8, !tbaa !111
  %152 = getelementptr inbounds nuw %struct._Node, ptr %151, i32 0, i32 0
  %153 = getelementptr inbounds nuw %struct.BackRefNode, ptr %152, i32 0, i32 5
  store ptr %150, ptr %153, align 8, !tbaa !12
  store i32 0, ptr %14, align 4, !tbaa !10
  br label %154

154:                                              ; preds = %168, %149
  %155 = load i32, ptr %14, align 4, !tbaa !10
  %156 = load i32, ptr %8, align 4, !tbaa !10
  %157 = icmp slt i32 %155, %156
  br i1 %157, label %158, label %171

158:                                              ; preds = %154
  %159 = load ptr, ptr %9, align 8, !tbaa !62
  %160 = load i32, ptr %14, align 4, !tbaa !10
  %161 = sext i32 %160 to i64
  %162 = getelementptr inbounds i32, ptr %159, i64 %161
  %163 = load i32, ptr %162, align 4, !tbaa !10
  %164 = load ptr, ptr %17, align 8, !tbaa !62
  %165 = load i32, ptr %14, align 4, !tbaa !10
  %166 = sext i32 %165 to i64
  %167 = getelementptr inbounds i32, ptr %164, i64 %166
  store i32 %163, ptr %167, align 4, !tbaa !10
  br label %168

168:                                              ; preds = %158
  %169 = load i32, ptr %14, align 4, !tbaa !10
  %170 = add nsw i32 %169, 1
  store i32 %170, ptr %14, align 4, !tbaa !10
  br label %154, !llvm.loop !250

171:                                              ; preds = %154
  store i32 0, ptr %16, align 4
  br label %172

172:                                              ; preds = %171, %147
  call void @llvm.lifetime.end.p0(i64 8, ptr %17) #8
  %173 = load i32, ptr %16, align 4
  switch i32 %173, label %181 [
    i32 0, label %174
  ]

174:                                              ; preds = %172
  br label %175

175:                                              ; preds = %174, %139
  %176 = load ptr, ptr %13, align 8, !tbaa !9
  %177 = getelementptr inbounds nuw %struct.ParseEnv, ptr %176, i32 0, i32 18
  %178 = load i32, ptr %177, align 8, !tbaa !176
  %179 = add nsw i32 %178, 1
  store i32 %179, ptr %177, align 8, !tbaa !176
  %180 = load ptr, ptr %15, align 8, !tbaa !111
  store ptr %180, ptr %7, align 8
  store i32 1, ptr %16, align 4
  br label %181

181:                                              ; preds = %175, %172, %21
  call void @llvm.lifetime.end.p0(i64 8, ptr %15) #8
  call void @llvm.lifetime.end.p0(i64 4, ptr %14) #8
  %182 = load ptr, ptr %7, align 8
  ret ptr %182
}