; Function Attrs: nounwind uwtable
define internal fastcc noundef ptr @node_new_backref(i32 noundef %0, ptr noundef readonly captures(none) %1, i32 noundef %2, i32 noundef %3, i32 noundef %4, ptr noundef captures(none) %5) unnamed_addr #2 {
  %calloc.i = tail call noalias noundef dereferenceable_or_null(72) ptr @calloc(i64 1, i64 72)
  %7 = icmp eq ptr %calloc.i, null
  br i1 %7, label %58, label %8

8:                                                ; preds = %6
  store i32 3, ptr %calloc.i, align 8, !tbaa !10
  %9 = getelementptr inbounds nuw i8, ptr %calloc.i, i64 16
  store i32 %0, ptr %9, align 8, !tbaa !10
  %10 = getelementptr inbounds nuw i8, ptr %calloc.i, i64 48
  %.not = icmp eq i32 %2, 0
  br i1 %.not, label %13, label %11

11:                                               ; preds = %8
  %12 = getelementptr inbounds nuw i8, ptr %calloc.i, i64 4
  store i32 32768, ptr %12, align 4, !tbaa !10
  br label %13

13:                                               ; preds = %11, %8
  %14 = phi i32 [ 32768, %11 ], [ 0, %8 ]
  %15 = load i32, ptr %5, align 8, !tbaa !140
  %16 = and i32 %15, 1
  %.not55 = icmp eq i32 %16, 0
  br i1 %.not55, label %20, label %17

17:                                               ; preds = %13
  %18 = getelementptr inbounds nuw i8, ptr %calloc.i, i64 4
  %19 = or disjoint i32 %14, 2097152
  store i32 %19, ptr %18, align 4, !tbaa !10
  br label %20

20:                                               ; preds = %17, %13
  %21 = phi i32 [ %19, %17 ], [ %14, %13 ]
  %.not56 = icmp eq i32 %3, 0
  br i1 %.not56, label %26, label %22

22:                                               ; preds = %20
  %23 = getelementptr inbounds nuw i8, ptr %calloc.i, i64 4
  %24 = or i32 %21, 8192
  store i32 %24, ptr %23, align 4, !tbaa !10
  %25 = getelementptr inbounds nuw i8, ptr %calloc.i, i64 56
  store i32 %4, ptr %25, align 8, !tbaa !10
  br label %26

26:                                               ; preds = %22, %20
  %27 = phi i32 [ %24, %22 ], [ %21, %20 ]
  %28 = icmp sgt i32 %0, 0
  br i1 %28, label %.lr.ph, label %.loopexit

.lr.ph:                                           ; preds = %26
  %29 = getelementptr inbounds nuw i8, ptr %5, i64 84
  %30 = load i32, ptr %29, align 4, !tbaa !153
  %31 = getelementptr inbounds nuw i8, ptr %5, i64 224
  %32 = getelementptr inbounds nuw i8, ptr %5, i64 96
  %wide.trip.count = zext nneg i32 %0 to i64
  br label %33

33:                                               ; preds = %.lr.ph, %46
  %indvars.iv = phi i64 [ 0, %.lr.ph ], [ %indvars.iv.next, %46 ]
  %34 = getelementptr inbounds nuw i32, ptr %1, i64 %indvars.iv
  %35 = load i32, ptr %34, align 4, !tbaa !8
  %.not57 = icmp sgt i32 %35, %30
  br i1 %.not57, label %46, label %36

36:                                               ; preds = %33
  %37 = load ptr, ptr %31, align 8, !tbaa !154
  %.not58 = icmp eq ptr %37, null
  %38 = select i1 %.not58, ptr %32, ptr %37
  %39 = sext i32 %35 to i64
  %40 = getelementptr inbounds %struct.MemEnv, ptr %38, i64 %39
  %41 = load ptr, ptr %40, align 8, !tbaa !155
  %42 = icmp eq ptr %41, null
  br i1 %42, label %43, label %46

43:                                               ; preds = %36
  %44 = getelementptr inbounds nuw i8, ptr %calloc.i, i64 4
  %45 = or i32 %27, 64
  store i32 %45, ptr %44, align 4, !tbaa !10
  br label %.loopexit61

46:                                               ; preds = %33, %36
  %indvars.iv.next = add nuw nsw i64 %indvars.iv, 1
  %exitcond.not = icmp eq i64 %indvars.iv.next, %wide.trip.count
  br i1 %exitcond.not, label %.loopexit61, label %33, !llvm.loop !252

.loopexit61:                                      ; preds = %46, %43
  %47 = icmp slt i32 %0, 7
  br i1 %47, label %.lr.ph66, label %51

.lr.ph66:                                         ; preds = %.loopexit61
  %48 = getelementptr inbounds nuw i8, ptr %calloc.i, i64 20
  %49 = zext nneg i32 %0 to i64
  %50 = shl nuw nsw i64 %49, 2
  tail call void @llvm.memcpy.p0.p0.i64(ptr nonnull align 4 %48, ptr nonnull align 4 %1, i64 %50, i1 false), !tbaa !10
  br label %.loopexit

51:                                               ; preds = %.loopexit61
  %52 = zext nneg i32 %0 to i64
  %53 = shl nuw nsw i64 %52, 2
  %54 = tail call noalias ptr @malloc(i64 noundef %53) #25
  %.not59 = icmp eq ptr %54, null
  br i1 %.not59, label %.thread, label %.lr.ph64.preheader

.thread:                                          ; preds = %51
  tail call fastcc void @node_free_body(ptr noundef nonnull %calloc.i)
  tail call void @free(ptr noundef nonnull %calloc.i) #24
  br label %58

.lr.ph64.preheader:                               ; preds = %51
  store ptr %54, ptr %10, align 8, !tbaa !10
  tail call void @llvm.memcpy.p0.p0.i64(ptr nonnull align 4 %54, ptr nonnull align 4 %1, i64 %53, i1 false), !tbaa !8
  br label %.loopexit

.loopexit:                                        ; preds = %26, %.lr.ph64.preheader, %.lr.ph66
  %55 = getelementptr inbounds nuw i8, ptr %5, i64 232
  %56 = load i32, ptr %55, align 8, !tbaa !253
  %57 = add nsw i32 %56, 1
  store i32 %57, ptr %55, align 8, !tbaa !253
  br label %58

58:                                               ; preds = %.thread, %6, %.loopexit
  %.0 = phi ptr [ %calloc.i, %.loopexit ], [ null, %6 ], [ null, %.thread ]
  ret ptr %.0
}